; Function Attrs: nounwind sspstrong uwtable
define internal void @vhost_user_gpu_reset(ptr noundef %vdev) #0 {
entry:
  %call.i = tail call ptr @object_dynamic_cast_assert(ptr noundef %vdev, ptr noundef nonnull @.str, ptr noundef nonnull @.str.4, i32 noundef 39, ptr noundef nonnull @__func__.VHOST_USER_GPU) #7
  %call.i2 = tail call ptr @object_dynamic_cast_assert(ptr noundef %vdev, ptr noundef nonnull @.str.1, ptr noundef nonnull @.str.4, i32 noundef 30, ptr noundef nonnull @__func__.VIRTIO_GPU_BASE) #7
  tail call void @virtio_gpu_base_reset(ptr noundef %call.i2) #7
  %vhost = getelementptr inbounds nuw i8, ptr %call.i, i64 2928
  %0 = load ptr, ptr %vhost, align 16
  tail call void @vhost_user_backend_stop(ptr noundef %0) #7
  ret void
}